; Function Attrs: nofree nounwind null_pointer_is_valid sspstrong memory(readwrite, inaccessiblemem: none) uwtable
define internal i32 @uri_to_str(ptr noundef readonly captures(none) %0, ptr noundef %1, i32 noundef %2) #3 {
  %4 = getelementptr inbounds nuw i8, ptr %0, i64 4
  %5 = load i32, ptr %4, align 4
  %6 = add i32 %2, -1
  %. = tail call i32 @llvm.smin.i32(i32 %5, i32 %6)
  %7 = getelementptr inbounds nuw i8, ptr %0, i64 8
  %8 = load ptr, ptr %7, align 8
  %9 = sext i32 %. to i64
  tail call void @llvm.memcpy.p0.p0.i64(ptr noundef align 1 %1, ptr noundef align 1 %8, i64 noundef range(i64 -2147483648, 2147483648) %9, i1 noundef false) #15
  %10 = getelementptr i8, ptr %1, i64 %9
  store i8 0, ptr %10, align 1
  %11 = add i32 %., 1
  ret i32 %11
}